target datalayout = "e-m:e-p270:32:32-p271:32:32-p272:64:64-i64:64-i128:128-f80:128-n8:16:32:64-S128"
target triple = "x86_64-unknown-linux-gnu"

; Function Attrs: mustprogress uwtable
define dso_local noundef double @_ZNK4base9Histogram17GetPeakBucketSizeERKNS_12SampleVectorE(ptr noundef nonnull align 8 dereferenceable(81) %this, ptr noundef nonnull align 8 dereferenceable(88) %samples) #0 align 2 {
entry:
  %this.addr = alloca ptr, align 8
  %samples.addr = alloca ptr, align 8
  %max = alloca double, align 8
  %i = alloca i32, align 4
  %current_size = alloca double, align 8
  store ptr %this, ptr %this.addr, align 8
  store ptr %samples, ptr %samples.addr, align 8
  %this1 = load ptr, ptr %this.addr, align 8
  store double 0.000000e+00, ptr %max, align 8
  store i32 0, ptr %i, align 4
  br label %for.cond

for.cond:                                         ; preds = %for.inc, %entry
  %0 = load i32, ptr %i, align 4
  %vtable = load ptr, ptr %this1, align 8
  %vfn = getelementptr inbounds ptr, ptr %vtable, i64 19
  %1 = load ptr, ptr %vfn, align 8
  %call = call noundef i32 %1(ptr noundef nonnull align 8 dereferenceable(81) %this1)
  %cmp = icmp ult i32 %0, %call
  br i1 %cmp, label %for.body, label %for.end

for.body:                                         ; preds = %for.cond
  %2 = load ptr, ptr %samples.addr, align 8
  %3 = load i32, ptr %i, align 4
  %conv = zext i32 %3 to i64
  %call2 = call noundef i32 @_ZNK4base12SampleVector15GetCountAtIndexEm(ptr noundef nonnull align 8 dereferenceable(88) %2, i64 noundef %conv)
  %4 = load i32, ptr %i, align 4
  %vtable3 = load ptr, ptr %this1, align 8
  %vfn4 = getelementptr inbounds ptr, ptr %vtable3, i64 21
  %5 = load ptr, ptr %vfn4, align 8
  %call5 = call noundef double %5(ptr noundef nonnull align 8 dereferenceable(81) %this1, i32 noundef %call2, i32 noundef %4)
  store double %call5, ptr %current_size, align 8
  %6 = load double, ptr %current_size, align 8
  %7 = load double, ptr %max, align 8
  %cmp6 = fcmp ogt double %6, %7
  br i1 %cmp6, label %if.then, label %if.end

if.then:                                          ; preds = %for.body
  %8 = load double, ptr %current_size, align 8
  store double %8, ptr %max, align 8
  br label %if.end

if.end:                                           ; preds = %if.then, %for.body
  br label %for.inc

for.inc:                                          ; preds = %if.end
  %9 = load i32, ptr %i, align 4
  %inc = add i32 %9, 1
  store i32 %inc, ptr %i, align 4
  br label %for.cond, !llvm.loop !13

for.end:                                          ; preds = %for.cond
  %10 = load double, ptr %max, align 8
  ret double %10
}