; Function Attrs: mustprogress uwtable
define dso_local noundef double @_ZNK4base9Histogram17GetPeakBucketSizeERKNS_12SampleVectorE(ptr noundef nonnull align 8 dereferenceable(81) %this, ptr noundef nonnull align 8 dereferenceable(88) %samples) local_unnamed_addr #0 align 2 {
entry:
  %vtable6 = load ptr, ptr %this, align 8
  %vfn7 = getelementptr inbounds i8, ptr %vtable6, i64 152
  %0 = load ptr, ptr %vfn7, align 8
  %call8 = tail call noundef i32 %0(ptr noundef nonnull align 8 dereferenceable(81) %this)
  %cmp9.not = icmp eq i32 %call8, 0
  br i1 %cmp9.not, label %for.end, label %for.body

for.body:                                         ; preds = %entry, %for.body
  %indvars.iv = phi i64 [ %indvars.iv.next, %for.body ], [ 0, %entry ]
  %max.011 = phi double [ %max.1, %for.body ], [ 0.000000e+00, %entry ]
  %call2 = tail call noundef i32 @_ZNK4base12SampleVector15GetCountAtIndexEm(ptr noundef nonnull align 8 dereferenceable(88) %samples, i64 noundef %indvars.iv)
  %vtable3 = load ptr, ptr %this, align 8
  %vfn4 = getelementptr inbounds i8, ptr %vtable3, i64 168
  %1 = load ptr, ptr %vfn4, align 8
  %2 = trunc i64 %indvars.iv to i32
  %call5 = tail call noundef double %1(ptr noundef nonnull align 8 dereferenceable(81) %this, i32 noundef %call2, i32 noundef %2)
  %cmp6 = fcmp ogt double %call5, %max.011
  %max.1 = select i1 %cmp6, double %call5, double %max.011
  %indvars.iv.next = add nuw nsw i64 %indvars.iv, 1
  %vtable = load ptr, ptr %this, align 8
  %vfn = getelementptr inbounds i8, ptr %vtable, i64 152
  %3 = load ptr, ptr %vfn, align 8
  %call = tail call noundef i32 %3(ptr noundef nonnull align 8 dereferenceable(81) %this)
  %4 = zext i32 %call to i64
  %cmp = icmp ult i64 %indvars.iv.next, %4
  br i1 %cmp, label %for.body, label %for.end, !llvm.loop !23

for.end:                                          ; preds = %for.body, %entry
  %max.0.lcssa = phi double [ 0.000000e+00, %entry ], [ %max.1, %for.body ]
  ret double %max.0.lcssa
}